target datalayout = "e-m:e-p270:32:32-p271:32:32-p272:64:64-i64:64-i128:128-f80:128-n8:16:32:64-S128"
target triple = "x86_64-pc-linux-gnu"

%struct.JNINativeInterface_ = type { ptr, ptr, ptr, ptr, ptr, ptr, ptr, ptr, ptr, ptr, ptr, ptr, ptr, ptr, ptr, ptr, ptr, ptr, ptr, ptr, ptr, ptr, ptr, ptr, ptr, ptr, ptr, ptr, ptr, ptr, ptr, ptr, ptr, ptr, ptr, ptr, ptr, ptr, ptr, ptr, ptr, ptr, ptr, ptr, ptr, ptr, ptr, ptr, ptr, ptr, ptr, ptr, ptr, ptr, ptr, ptr, ptr, ptr, ptr, ptr, ptr, ptr, ptr, ptr, ptr, ptr, ptr, ptr, ptr, ptr, ptr, ptr, ptr, ptr, ptr, ptr, ptr, ptr, ptr, ptr, ptr, ptr, ptr, ptr, ptr, ptr, ptr, ptr, ptr, ptr, ptr, ptr, ptr, ptr, ptr, ptr, ptr, ptr, ptr, ptr, ptr, ptr, ptr, ptr, ptr, ptr, ptr, ptr, ptr, ptr, ptr, ptr, ptr, ptr, ptr, ptr, ptr, ptr, ptr, ptr, ptr, ptr, ptr, ptr, ptr, ptr, ptr, ptr, ptr, ptr, ptr, ptr, ptr, ptr, ptr, ptr, ptr, ptr, ptr, ptr, ptr, ptr, ptr, ptr, ptr, ptr, ptr, ptr, ptr, ptr, ptr, ptr, ptr, ptr, ptr, ptr, ptr, ptr, ptr, ptr, ptr, ptr, ptr, ptr, ptr, ptr, ptr, ptr, ptr, ptr, ptr, ptr, ptr, ptr, ptr, ptr, ptr, ptr, ptr, ptr, ptr, ptr, ptr, ptr, ptr, ptr, ptr, ptr, ptr, ptr, ptr, ptr, ptr, ptr, ptr, ptr, ptr, ptr, ptr, ptr, ptr, ptr, ptr, ptr, ptr, ptr, ptr, ptr, ptr, ptr, ptr, ptr, ptr, ptr, ptr, ptr, ptr, ptr, ptr, ptr, ptr, ptr, ptr, ptr, ptr, ptr, ptr, ptr, ptr, ptr, ptr, ptr, ptr, ptr, ptr }

@sFallbackInternalError = internal global ptr null, align 8
@.str = private unnamed_addr constant [26 x i8] c"isSafeForJNICalls(jnienv)\00", align 1
@.str.1 = private unnamed_addr constant [64 x i8] c"src/java.instrument/share/native/libinstrument/JavaExceptions.c\00", align 1
@.str.32 = private unnamed_addr constant [16 x i8] c"java/lang/Error\00", align 1
@.str.33 = private unnamed_addr constant [27 x i8] c"java/lang/RuntimeException\00", align 1
@.str.34 = private unnamed_addr constant [17 x i8] c"result == JNI_OK\00", align 1
@.str.35 = private unnamed_addr constant [34 x i8] c"throwThrowable failed to re-throw\00", align 1

; Function Attrs: nounwind uwtable
define hidden zeroext i8 @isSafeForJNICalls(ptr noundef %0) #0 {
  %2 = alloca ptr, align 8
  store ptr %0, ptr %2, align 8
  %3 = load ptr, ptr %2, align 8
  %4 = load ptr, ptr %3, align 8
  %5 = getelementptr inbounds %struct.JNINativeInterface_, ptr %4, i32 0, i32 228
  %6 = load ptr, ptr %5, align 8
  %7 = load ptr, ptr %2, align 8
  %8 = call zeroext i8 %6(ptr noundef %7)
  %9 = icmp ne i8 %8, 0
  %10 = xor i1 %9, true
  %11 = zext i1 %10 to i32
  %12 = trunc i32 %11 to i8
  ret i8 %12
}

; Function Attrs: nounwind uwtable
define hidden void @throwThrowable(ptr noundef %0, ptr noundef %1) #0 {
  %3 = alloca ptr, align 8
  %4 = alloca ptr, align 8
  %5 = alloca i32, align 4
  store ptr %0, ptr %3, align 8
  store ptr %1, ptr %4, align 8
  %6 = load ptr, ptr %4, align 8
  %7 = icmp ne ptr %6, null
  br i1 %7, label %8, label %20

8:                                                ; preds = %2
  %9 = load ptr, ptr %3, align 8
  %10 = load ptr, ptr %9, align 8
  %11 = getelementptr inbounds %struct.JNINativeInterface_, ptr %10, i32 0, i32 13
  %12 = load ptr, ptr %11, align 8
  %13 = load ptr, ptr %3, align 8
  %14 = load ptr, ptr %4, align 8
  %15 = call i32 %12(ptr noundef %13, ptr noundef %14)
  store i32 %15, ptr %5, align 4
  %16 = load i32, ptr %5, align 4
  %17 = icmp eq i32 %16, 0
  %18 = zext i1 %17 to i32
  %19 = trunc i32 %18 to i8
  call void @JPLISAssertConditionWithMessage(i8 noundef zeroext %19, ptr noundef @.str.34, ptr noundef @.str.35, ptr noundef @.str.1, i32 noundef 361)
  br label %20

20:                                               ; preds = %8, %2
  ret void
}

; Function Attrs: nounwind uwtable
define hidden ptr @forceFallback(ptr noundef %0) #0 {
  %2 = alloca ptr, align 8
  %3 = alloca ptr, align 8
  store ptr %0, ptr %3, align 8
  %4 = load ptr, ptr %3, align 8
  %5 = icmp eq ptr %4, null
  br i1 %5, label %6, label %8

6:                                                ; preds = %1
  %7 = load ptr, ptr @sFallbackInternalError, align 8
  store ptr %7, ptr %2, align 8
  br label %10

8:                                                ; preds = %1
  %9 = load ptr, ptr %3, align 8
  store ptr %9, ptr %2, align 8
  br label %10

10:                                               ; preds = %8, %6
  %11 = load ptr, ptr %2, align 8
  ret ptr %11
}

; Function Attrs: nounwind uwtable
define hidden zeroext i8 @isUnchecked(ptr noundef %0, ptr noundef %1) #0 {
  %3 = alloca ptr, align 8
  %4 = alloca ptr, align 8
  %5 = alloca i8, align 1
  store ptr %0, ptr %3, align 8
  store ptr %1, ptr %4, align 8
  store i8 0, ptr %5, align 1
  %6 = load ptr, ptr %3, align 8
  %7 = call zeroext i8 @isSafeForJNICalls(ptr noundef %6)
  call void @JPLISAssertCondition(i8 noundef zeroext %7, ptr noundef @.str, ptr noundef @.str.1, i32 noundef 323)
  %8 = load ptr, ptr %4, align 8
  %9 = icmp eq ptr %8, null
  br i1 %9, label %22, label %10

10:                                               ; preds = %2
  %11 = load ptr, ptr %3, align 8
  %12 = load ptr, ptr %4, align 8
  %13 = call zeroext i8 @isInstanceofClassName(ptr noundef %11, ptr noundef %12, ptr noundef @.str.32)
  %14 = zext i8 %13 to i32
  %15 = icmp ne i32 %14, 0
  br i1 %15, label %22, label %16

16:                                               ; preds = %10
  %17 = load ptr, ptr %3, align 8
  %18 = load ptr, ptr %4, align 8
  %19 = call zeroext i8 @isInstanceofClassName(ptr noundef %17, ptr noundef %18, ptr noundef @.str.33)
  %20 = zext i8 %19 to i32
  %21 = icmp ne i32 %20, 0
  br label %22

22:                                               ; preds = %16, %10, %2
  %23 = phi i1 [ true, %10 ], [ true, %2 ], [ %21, %16 ]
  %24 = zext i1 %23 to i32
  %25 = trunc i32 %24 to i8
  store i8 %25, ptr %5, align 1
  %26 = load ptr, ptr %3, align 8
  %27 = call zeroext i8 @isSafeForJNICalls(ptr noundef %26)
  call void @JPLISAssertCondition(i8 noundef zeroext %27, ptr noundef @.str, ptr noundef @.str.1, i32 noundef 327)
  %28 = load i8, ptr %5, align 1
  ret i8 %28
}

; Function Attrs: nounwind uwtable
define hidden ptr @preserveThrowable(ptr noundef %0) #0 {
  %2 = alloca ptr, align 8
  %3 = alloca ptr, align 8
  store ptr %0, ptr %2, align 8
  %4 = load ptr, ptr %2, align 8
  %5 = load ptr, ptr %4, align 8
  %6 = getelementptr inbounds %struct.JNINativeInterface_, ptr %5, i32 0, i32 15
  %7 = load ptr, ptr %6, align 8
  %8 = load ptr, ptr %2, align 8
  %9 = call ptr %7(ptr noundef %8)
  store ptr %9, ptr %3, align 8
  %10 = load ptr, ptr %3, align 8
  %11 = icmp ne ptr %10, null
  br i1 %11, label %12, label %18

12:                                               ; preds = %1
  %13 = load ptr, ptr %2, align 8
  %14 = load ptr, ptr %13, align 8
  %15 = getelementptr inbounds %struct.JNINativeInterface_, ptr %14, i32 0, i32 17
  %16 = load ptr, ptr %15, align 8
  %17 = load ptr, ptr %2, align 8
  call void %16(ptr noundef %17)
  br label %18

18:                                               ; preds = %12, %1
  %19 = load ptr, ptr %3, align 8
  ret ptr %19
}

; Function Attrs: nounwind uwtable
define hidden void @mapThrownThrowableIfNecessary(ptr noundef %0, ptr noundef %1) #0 {
  %3 = alloca ptr, align 8
  %4 = alloca ptr, align 8
  %5 = alloca ptr, align 8
  %6 = alloca ptr, align 8
  store ptr %0, ptr %3, align 8
  store ptr %1, ptr %4, align 8
  store ptr null, ptr %5, align 8
  store ptr null, ptr %6, align 8
  %7 = load ptr, ptr %3, align 8
  %8 = call ptr @preserveThrowable(ptr noundef %7)
  store ptr %8, ptr %5, align 8
  %9 = load ptr, ptr %5, align 8
  %10 = icmp ne ptr %9, null
  br i1 %10, label %11, label %24

11:                                               ; preds = %2
  %12 = load ptr, ptr %3, align 8
  %13 = load ptr, ptr %5, align 8
  %14 = call zeroext i8 @isUnchecked(ptr noundef %12, ptr noundef %13)
  %15 = icmp ne i8 %14, 0
  br i1 %15, label %16, label %18

16:                                               ; preds = %11
  %17 = load ptr, ptr %5, align 8
  store ptr %17, ptr %6, align 8
  br label %23

18:                                               ; preds = %11
  %19 = load ptr, ptr %4, align 8
  %20 = load ptr, ptr %3, align 8
  %21 = load ptr, ptr %5, align 8
  %22 = call ptr %19(ptr noundef %20, ptr noundef %21)
  store ptr %22, ptr %6, align 8
  br label %23

23:                                               ; preds = %18, %16
  br label %24

24:                                               ; preds = %23, %2
  %25 = load ptr, ptr %6, align 8
  %26 = icmp ne ptr %25, null
  br i1 %26, label %27, label %31

27:                                               ; preds = %24
  %28 = load ptr, ptr %3, align 8
  %29 = load ptr, ptr %6, align 8
  %30 = call ptr @forceFallback(ptr noundef %29)
  call void @throwThrowable(ptr noundef %28, ptr noundef %30)
  br label %31

31:                                               ; preds = %27, %24
  ret void
}