; Function Attrs: nounwind uwtable
define hidden void @mapThrownThrowableIfNecessary(ptr noundef %0, ptr nocapture noundef readonly %1) local_unnamed_addr #1 {
  %3 = load ptr, ptr %0, align 8
  %4 = getelementptr inbounds i8, ptr %3, i64 120
  %5 = load ptr, ptr %4, align 8
  %6 = tail call ptr %5(ptr noundef nonnull %0) #3
  %.not.i = icmp eq ptr %6, null
  br i1 %.not.i, label %.thread, label %7

7:                                                ; preds = %2
  %8 = load ptr, ptr %0, align 8
  %9 = getelementptr inbounds i8, ptr %8, i64 136
  %10 = load ptr, ptr %9, align 8
  tail call void %10(ptr noundef nonnull %0) #3
  %11 = load ptr, ptr %0, align 8
  %12 = getelementptr inbounds i8, ptr %11, i64 1824
  %13 = load ptr, ptr %12, align 8
  %14 = tail call zeroext i8 %13(ptr noundef nonnull %0) #3
  %.not.i.i = icmp eq i8 %14, 0
  %15 = zext i1 %.not.i.i to i8
  tail call void @JPLISAssertCondition(i8 noundef zeroext %15, ptr noundef nonnull @.str, ptr noundef nonnull @.str.1, i32 noundef 323) #3
  %16 = tail call zeroext i8 @isInstanceofClassName(ptr noundef nonnull %0, ptr noundef nonnull %6, ptr noundef nonnull @.str.32) #3
  %.not.i14 = icmp eq i8 %16, 0
  br i1 %.not.i14, label %isUnchecked.exit, label %throwThrowable.exit.critedge

isUnchecked.exit:                                 ; preds = %7
  %17 = tail call zeroext i8 @isInstanceofClassName(ptr noundef nonnull %0, ptr noundef nonnull %6, ptr noundef nonnull @.str.33) #3
  %.not = icmp eq i8 %17, 0
  %18 = load ptr, ptr %0, align 8
  %19 = getelementptr inbounds i8, ptr %18, i64 1824
  %20 = load ptr, ptr %19, align 8
  %21 = tail call zeroext i8 %20(ptr noundef nonnull %0) #3
  %.not.i7.i = icmp eq i8 %21, 0
  %22 = zext i1 %.not.i7.i to i8
  tail call void @JPLISAssertCondition(i8 noundef zeroext %22, ptr noundef nonnull @.str, ptr noundef nonnull @.str.1, i32 noundef 327) #3
  br i1 %.not, label %23, label %throwThrowable.exit

23:                                               ; preds = %isUnchecked.exit
  %24 = tail call ptr %1(ptr noundef nonnull %0, ptr noundef nonnull %6) #3
  %.not13 = icmp eq ptr %24, null
  br i1 %.not13, label %.thread, label %throwThrowable.exit

throwThrowable.exit.critedge:                     ; preds = %7
  %25 = load ptr, ptr %0, align 8
  %26 = getelementptr inbounds i8, ptr %25, i64 1824
  %27 = load ptr, ptr %26, align 8
  %28 = tail call zeroext i8 %27(ptr noundef nonnull %0) #3
  %.not.i7.i.c = icmp eq i8 %28, 0
  %29 = zext i1 %.not.i7.i.c to i8
  tail call void @JPLISAssertCondition(i8 noundef zeroext %29, ptr noundef nonnull @.str, ptr noundef nonnull @.str.1, i32 noundef 327) #3
  br label %throwThrowable.exit

throwThrowable.exit:                              ; preds = %throwThrowable.exit.critedge, %isUnchecked.exit, %23
  %.021 = phi ptr [ %24, %23 ], [ %6, %isUnchecked.exit ], [ %6, %throwThrowable.exit.critedge ]
  %30 = load ptr, ptr %0, align 8
  %31 = getelementptr inbounds i8, ptr %30, i64 104
  %32 = load ptr, ptr %31, align 8
  %33 = tail call i32 %32(ptr noundef nonnull %0, ptr noundef nonnull %.021) #3
  %34 = icmp eq i32 %33, 0
  %35 = zext i1 %34 to i8
  tail call void @JPLISAssertConditionWithMessage(i8 noundef zeroext %35, ptr noundef nonnull @.str.34, ptr noundef nonnull @.str.35, ptr noundef nonnull @.str.1, i32 noundef 361) #3
  br label %.thread

.thread:                                          ; preds = %2, %throwThrowable.exit, %23
  ret void
}